; ModuleID = '4/1670.c'
source_filename = "4/1670.c"
target datalayout = "e-m:e-p270:32:32-p271:32:32-p272:64:64-i64:64-f80:128-n8:16:32:64-S128"
target triple = "x86_64-pc-linux-gnu"

@.str = private unnamed_addr constant [5 x i8] c"%d%d\00", align 1
@.str.1 = private unnamed_addr constant [3 x i8] c"%d\00", align 1
@.str.2 = private unnamed_addr constant [4 x i8] c"%d\0A\00", align 1

; Function Attrs: noinline nounwind uwtable
define dso_local void @main() #0 {
  %1 = alloca i32, align 4
  %2 = alloca i32, align 4
  %3 = alloca i32, align 4
  %4 = alloca i32, align 4
  %5 = alloca i32, align 4
  %6 = alloca [100 x i32*], align 16
  %7 = call i32 (i8*, ...) @__isoc99_scanf(i8* getelementptr inbounds ([5 x i8], [5 x i8]* @.str, i64 0, i64 0), i32* %4, i32* %5)
  store i32 0, i32* %1, align 4
  br label %8

8:                                                ; preds = %18, %0
  %9 = load i32, i32* %1, align 4
  %10 = load i32, i32* %4, align 4
  %11 = icmp slt i32 %9, %10
  br i1 %11, label %12, label %21

12:                                               ; preds = %8
  %13 = call noalias i8* @malloc(i64 400) #3
  %14 = bitcast i8* %13 to i32*
  %15 = load i32, i32* %1, align 4
  %16 = sext i32 %15 to i64
  %17 = getelementptr inbounds [100 x i32*], [100 x i32*]* %6, i64 0, i64 %16
  store i32* %14, i32** %17, align 8
  br label %18

18:                                               ; preds = %12
  %19 = load i32, i32* %1, align 4
  %20 = add nsw i32 %19, 1
  store i32 %20, i32* %1, align 4
  br label %8

21:                                               ; preds = %8
  store i32 0, i32* %1, align 4
  br label %22

22:                                               ; preds = %44, %21
  %23 = load i32, i32* %1, align 4
  %24 = load i32, i32* %4, align 4
  %25 = icmp slt i32 %23, %24
  br i1 %25, label %26, label %47

26:                                               ; preds = %22
  store i32 0, i32* %2, align 4
  br label %27

27:                                               ; preds = %40, %26
  %28 = load i32, i32* %2, align 4
  %29 = load i32, i32* %5, align 4
  %30 = icmp slt i32 %28, %29
  br i1 %30, label %31, label %43

31:                                               ; preds = %27
  %32 = load i32, i32* %1, align 4
  %33 = sext i32 %32 to i64
  %34 = getelementptr inbounds [100 x i32*], [100 x i32*]* %6, i64 0, i64 %33
  %35 = load i32*, i32** %34, align 8
  %36 = load i32, i32* %2, align 4
  %37 = sext i32 %36 to i64
  %38 = getelementptr inbounds i32, i32* %35, i64 %37
  %39 = call i32 (i8*, ...) @__isoc99_scanf(i8* getelementptr inbounds ([3 x i8], [3 x i8]* @.str.1, i64 0, i64 0), i32* %38)
  br label %40

40:                                               ; preds = %31
  %41 = load i32, i32* %2, align 4
  %42 = add nsw i32 %41, 1
  store i32 %42, i32* %2, align 4
  br label %27

43:                                               ; preds = %27
  br label %44

44:                                               ; preds = %43
  %45 = load i32, i32* %1, align 4
  %46 = add nsw i32 %45, 1
  store i32 %46, i32* %1, align 4
  br label %22

47:                                               ; preds = %22
  store i32 0, i32* %3, align 4
  br label %48

48:                                               ; preds = %96, %47
  %49 = load i32, i32* %3, align 4
  %50 = load i32, i32* %4, align 4
  %51 = load i32, i32* %5, align 4
  %52 = add nsw i32 %50, %51
  %53 = sub nsw i32 %52, 2
  %54 = icmp sle i32 %49, %53
  br i1 %54, label %55, label %99

55:                                               ; preds = %48
  store i32 0, i32* %1, align 4
  %56 = load i32, i32* %3, align 4
  %57 = sub nsw i32 %56, 1
  store i32 %57, i32* %2, align 4
  br label %58

58:                                               ; preds = %90, %55
  %59 = load i32, i32* %1, align 4
  %60 = load i32, i32* %4, align 4
  %61 = sub nsw i32 %60, 1
  %62 = icmp sle i32 %59, %61
  br i1 %62, label %63, label %95

63:                                               ; preds = %58
  %64 = load i32, i32* %1, align 4
  %65 = load i32, i32* %4, align 4
  %66 = sub nsw i32 %65, 1
  %67 = icmp sle i32 %64, %66
  br i1 %67, label %68, label %89

68:                                               ; preds = %63
  %69 = load i32, i32* %2, align 4
  %70 = icmp sge i32 %69, 0
  br i1 %70, label %71, label %89

71:                                               ; preds = %68
  %72 = load i32, i32* %2, align 4
  %73 = load i32, i32* %5, align 4
  %74 = sub nsw i32 %73, 1
  %75 = icmp sle i32 %72, %74
  br i1 %75, label %76, label %89

76:                                               ; preds = %71
  %77 = load i32, i32* %1, align 4
  %78 = icmp sge i32 %77, 0
  br i1 %78, label %79, label %89

79:                                               ; preds = %76
  %80 = load i32, i32* %1, align 4
  %81 = sext i32 %80 to i64
  %82 = getelementptr inbounds [100 x i32*], [100 x i32*]* %6, i64 0, i64 %81
  %83 = load i32*, i32** %82, align 8
  %84 = load i32, i32* %2, align 4
  %85 = sext i32 %84 to i64
  %86 = getelementptr inbounds i32, i32* %83, i64 %85
  %87 = load i32, i32* %86, align 4
  %88 = call i32 (i8*, ...) @printf(i8* getelementptr inbounds ([4 x i8], [4 x i8]* @.str.2, i64 0, i64 0), i32 %87)
  br label %89

89:                                               ; preds = %79, %76, %71, %68, %63
  br label %90

90:                                               ; preds = %89
  %91 = load i32, i32* %1, align 4
  %92 = add nsw i32 %91, 1
  store i32 %92, i32* %1, align 4
  %93 = load i32, i32* %2, align 4
  %94 = add nsw i32 %93, -1
  store i32 %94, i32* %2, align 4
  br label %58

95:                                               ; preds = %58
  br label %96

96:                                               ; preds = %95
  %97 = load i32, i32* %3, align 4
  %98 = add nsw i32 %97, 1
  store i32 %98, i32* %3, align 4
  br label %48

99:                                               ; preds = %48
  %100 = load i32, i32* %4, align 4
  %101 = sub nsw i32 %100, 1
  %102 = sext i32 %101 to i64
  %103 = getelementptr inbounds [100 x i32*], [100 x i32*]* %6, i64 0, i64 %102
  %104 = load i32*, i32** %103, align 8
  %105 = load i32, i32* %5, align 4
  %106 = sext i32 %105 to i64
  %107 = getelementptr inbounds i32, i32* %104, i64 %106
  %108 = getelementptr inbounds i32, i32* %107, i64 -1
  %109 = load i32, i32* %108, align 4
  %110 = call i32 (i8*, ...) @printf(i8* getelementptr inbounds ([4 x i8], [4 x i8]* @.str.2, i64 0, i64 0), i32 %109)
  ret void
}

declare dso_local i32 @__isoc99_scanf(i8*, ...) #1

; Function Attrs: nounwind
declare dso_local noalias i8* @malloc(i64) #2

declare dso_local i32 @printf(i8*, ...) #1


!llvm.module.flags = !{!0}
!llvm.ident = !{!1}

!0 = !{i32 1, !"wchar_size", i32 4}
!1 = !{!"clang version 10.0.0-4ubuntu1 "}
